; Function Attrs: nounwind uwtable
define ptr @l_Lean_Meta_PProdN_projs(ptr noundef %0, ptr noundef %1, ptr noundef %2) local_unnamed_addr #0 {
  %4 = ptrtoint ptr %0 to i64
  %5 = and i64 %4, 1
  %.not = icmp eq i64 %5, 0
  br i1 %.not, label %6, label %lean_inc.exit

6:                                                ; preds = %3
  %.val.i = load i32, ptr %0, align 4, !tbaa !4
  %7 = icmp sgt i32 %.val.i, 0
  br i1 %7, label %8, label %10, !prof !9

8:                                                ; preds = %6
  %9 = add nuw i32 %.val.i, 1
  store i32 %9, ptr %0, align 4, !tbaa !4
  br label %lean_inc.exit

10:                                               ; preds = %6
  %.not.i = icmp eq i32 %.val.i, 0
  br i1 %.not.i, label %lean_inc.exit, label %11

11:                                               ; preds = %10
  tail call void @lean_inc_ref_cold(ptr noundef nonnull %0) #4
  br label %lean_inc.exit

lean_inc.exit:                                    ; preds = %11, %10, %8, %3
  tail call void @lean_inc_heartbeat() #4
  %12 = tail call noalias ptr @mi_malloc_small(i64 noundef 48) #4
  %13 = icmp eq ptr %12, null
  br i1 %13, label %14, label %lean_alloc_closure.exit

14:                                               ; preds = %lean_inc.exit
  tail call void @lean_internal_panic_out_of_memory() #5
  unreachable

lean_alloc_closure.exit:                          ; preds = %lean_inc.exit
  %15 = getelementptr inbounds nuw i8, ptr %12, i64 4
  store i32 1, ptr %12, align 4, !tbaa !4
  store i32 -184549328, ptr %15, align 4
  %16 = getelementptr inbounds nuw i8, ptr %12, i64 8
  store ptr @l_Lean_Meta_PProdN_projs___lambda__1, ptr %16, align 8, !tbaa !10
  %17 = getelementptr inbounds nuw i8, ptr %12, i64 16
  store i16 4, ptr %17, align 8, !tbaa !12
  %18 = getelementptr inbounds nuw i8, ptr %12, i64 18
  store i16 3, ptr %18, align 2, !tbaa !12
  %19 = getelementptr inbounds nuw i8, ptr %12, i64 24
  store ptr %0, ptr %19, align 8, !tbaa !10
  %20 = getelementptr inbounds nuw i8, ptr %12, i64 32
  store ptr %1, ptr %20, align 8, !tbaa !10
  %21 = getelementptr inbounds nuw i8, ptr %12, i64 40
  store ptr %2, ptr %21, align 8, !tbaa !10
  %22 = tail call ptr @l_Array_ofFn___rarg(ptr noundef %0, ptr noundef nonnull %12) #4
  br i1 %.not, label %23, label %lean_dec.exit

23:                                               ; preds = %lean_alloc_closure.exit
  %24 = load i32, ptr %0, align 4, !tbaa !4
  %25 = icmp sgt i32 %24, 1
  br i1 %25, label %26, label %28, !prof !9

26:                                               ; preds = %23
  %27 = add nsw i32 %24, -1
  store i32 %27, ptr %0, align 4, !tbaa !4
  br label %lean_dec.exit

28:                                               ; preds = %23
  %.not.i.i = icmp eq i32 %24, 0
  br i1 %.not.i.i, label %lean_dec.exit, label %29

29:                                               ; preds = %28
  tail call void @lean_dec_ref_cold(ptr noundef nonnull %0) #4
  br label %lean_dec.exit

lean_dec.exit:                                    ; preds = %26, %28, %29, %lean_alloc_closure.exit
  ret ptr %22
}